target datalayout = "e-m:e-p270:32:32-p271:32:32-p272:64:64-i64:64-i128:128-f80:128-n8:16:32:64-S128"
target triple = "x86_64-pc-linux-gnu"

%"struct.vcpkg::XmlSerializer" = type <{ %"class.std::__cxx11::basic_string", i32, i8, [3 x i8] }>
%"class.std::__cxx11::basic_string" = type { %"struct.std::__cxx11::basic_string<char>::_Alloc_hider", i64, %union.anon }
%"struct.std::__cxx11::basic_string<char>::_Alloc_hider" = type { ptr }
%union.anon = type { i64, [8 x i8] }
%"struct.vcpkg::StringLiteral" = type { %"struct.vcpkg::ZStringView" }
%"struct.vcpkg::ZStringView" = type { %"struct.vcpkg::StringView" }
%"struct.vcpkg::StringView" = type { ptr, i64 }

@.str.3 = private unnamed_addr constant [3 x i8] c"</\00", align 1

; Function Attrs: mustprogress uwtable
define linkonce_odr dso_local void @_ZN5vcpkg7Strings7details15append_internalINS_13StringLiteralEvEEvRNSt7__cxx1112basic_stringIcSt11char_traitsIcESaIcEEERKT_(ptr noundef nonnull align 8 dereferenceable(32) %0, ptr noundef nonnull align 8 dereferenceable(16) %1) #0 comdat {
  %3 = alloca ptr, align 8
  %4 = alloca ptr, align 8
  store ptr %0, ptr %3, align 8, !tbaa !9
  store ptr %1, ptr %4, align 8, !tbaa !25
  %5 = load ptr, ptr %4, align 8, !tbaa !25
  %6 = load ptr, ptr %3, align 8, !tbaa !9
  call void @_ZNK5vcpkg10StringView9to_stringERNSt7__cxx1112basic_stringIcSt11char_traitsIcESaIcEEE(ptr noundef nonnull align 8 dereferenceable(16) %5, ptr noundef nonnull align 8 dereferenceable(32) %6)
  ret void
}

; Function Attrs: mustprogress nounwind uwtable
define available_externally noundef i64 @_ZNKSt7__cxx1112basic_stringIcSt11char_traitsIcESaIcEE4sizeEv(ptr noundef nonnull align 8 dereferenceable(32) %0) #4 align 2 {
  %2 = alloca ptr, align 8
  store ptr %0, ptr %2, align 8, !tbaa !9
  %3 = load ptr, ptr %2, align 8
  %4 = getelementptr inbounds nuw %"class.std::__cxx11::basic_string", ptr %3, i32 0, i32 1
  %5 = load i64, ptr %4, align 8, !tbaa !40
  ret i64 %5
}

; Function Attrs: mustprogress uwtable
define linkonce_odr dso_local noundef nonnull align 8 dereferenceable(32) ptr @_ZN5vcpkg7Strings6appendIJA3_cNS_13StringLiteralEcEEERNSt7__cxx1112basic_stringIcSt11char_traitsIcESaIcEEESA_DpRKT_(ptr noundef nonnull align 8 dereferenceable(32) %0, ptr noundef nonnull align 1 dereferenceable(3) %1, ptr noundef nonnull align 8 dereferenceable(16) %2, ptr noundef nonnull align 1 dereferenceable(1) %3) #0 comdat {
  %5 = alloca ptr, align 8
  %6 = alloca ptr, align 8
  %7 = alloca ptr, align 8
  %8 = alloca ptr, align 8
  store ptr %0, ptr %5, align 8, !tbaa !9
  store ptr %1, ptr %6, align 8, !tbaa !11
  store ptr %2, ptr %7, align 8, !tbaa !25
  store ptr %3, ptr %8, align 8, !tbaa !11
  %9 = load ptr, ptr %5, align 8, !tbaa !9
  %10 = load ptr, ptr %6, align 8, !tbaa !11
  %11 = getelementptr inbounds [3 x i8], ptr %10, i64 0, i64 0
  call void @_ZN5vcpkg7Strings7details15append_internalERNSt7__cxx1112basic_stringIcSt11char_traitsIcESaIcEEEPKc(ptr noundef nonnull align 8 dereferenceable(32) %9, ptr noundef %11)
  br i1 false, label %22, label %12

12:                                               ; preds = %4
  %13 = load ptr, ptr %5, align 8, !tbaa !9
  %14 = load ptr, ptr %7, align 8, !tbaa !25
  call void @_ZN5vcpkg7Strings7details15append_internalINS_13StringLiteralEvEEvRNSt7__cxx1112basic_stringIcSt11char_traitsIcESaIcEEERKT_(ptr noundef nonnull align 8 dereferenceable(32) %13, ptr noundef nonnull align 8 dereferenceable(16) %14)
  br i1 false, label %21, label %15

15:                                               ; preds = %12
  %16 = load ptr, ptr %5, align 8, !tbaa !9
  %17 = load ptr, ptr %8, align 8, !tbaa !11
  %18 = load i8, ptr %17, align 1, !tbaa !15
  call void @_ZN5vcpkg7Strings7details15append_internalERNSt7__cxx1112basic_stringIcSt11char_traitsIcESaIcEEEc(ptr noundef nonnull align 8 dereferenceable(32) %16, i8 noundef signext %18)
  br i1 false, label %20, label %19

19:                                               ; preds = %15
  br label %20

20:                                               ; preds = %19, %15
  br label %21

21:                                               ; preds = %20, %12
  br label %22

22:                                               ; preds = %21, %4
  %23 = load ptr, ptr %5, align 8, !tbaa !9
  ret ptr %23
}

; Function Attrs: mustprogress uwtable
define linkonce_odr dso_local noundef nonnull align 8 dereferenceable(32) ptr @_ZN5vcpkg7Strings6appendIJcNS_13StringLiteralEcEEERNSt7__cxx1112basic_stringIcSt11char_traitsIcESaIcEEES9_DpRKT_(ptr noundef nonnull align 8 dereferenceable(32) %0, ptr noundef nonnull align 1 dereferenceable(1) %1, ptr noundef nonnull align 8 dereferenceable(16) %2, ptr noundef nonnull align 1 dereferenceable(1) %3) #0 comdat {
  %5 = alloca ptr, align 8
  %6 = alloca ptr, align 8
  %7 = alloca ptr, align 8
  %8 = alloca ptr, align 8
  store ptr %0, ptr %5, align 8, !tbaa !9
  store ptr %1, ptr %6, align 8, !tbaa !11
  store ptr %2, ptr %7, align 8, !tbaa !25
  store ptr %3, ptr %8, align 8, !tbaa !11
  %9 = load ptr, ptr %5, align 8, !tbaa !9
  %10 = load ptr, ptr %6, align 8, !tbaa !11
  %11 = load i8, ptr %10, align 1, !tbaa !15
  call void @_ZN5vcpkg7Strings7details15append_internalERNSt7__cxx1112basic_stringIcSt11char_traitsIcESaIcEEEc(ptr noundef nonnull align 8 dereferenceable(32) %9, i8 noundef signext %11)
  br i1 false, label %22, label %12

12:                                               ; preds = %4
  %13 = load ptr, ptr %5, align 8, !tbaa !9
  %14 = load ptr, ptr %7, align 8, !tbaa !25
  call void @_ZN5vcpkg7Strings7details15append_internalINS_13StringLiteralEvEEvRNSt7__cxx1112basic_stringIcSt11char_traitsIcESaIcEEERKT_(ptr noundef nonnull align 8 dereferenceable(32) %13, ptr noundef nonnull align 8 dereferenceable(16) %14)
  br i1 false, label %21, label %15

15:                                               ; preds = %12
  %16 = load ptr, ptr %5, align 8, !tbaa !9
  %17 = load ptr, ptr %8, align 8, !tbaa !11
  %18 = load i8, ptr %17, align 1, !tbaa !15
  call void @_ZN5vcpkg7Strings7details15append_internalERNSt7__cxx1112basic_stringIcSt11char_traitsIcESaIcEEEc(ptr noundef nonnull align 8 dereferenceable(32) %16, i8 noundef signext %18)
  br i1 false, label %20, label %19

19:                                               ; preds = %15
  br label %20

20:                                               ; preds = %19, %15
  br label %21

21:                                               ; preds = %20, %12
  br label %22

22:                                               ; preds = %21, %4
  %23 = load ptr, ptr %5, align 8, !tbaa !9
  ret ptr %23
}

; Function Attrs: mustprogress uwtable
define available_externally noundef nonnull align 8 dereferenceable(32) ptr @_ZNSt7__cxx1112basic_stringIcSt11char_traitsIcESaIcEE6appendEmc(ptr noundef nonnull align 8 dereferenceable(32) %0, i64 noundef %1, i8 noundef signext %2) #0 align 2 {
  %4 = alloca ptr, align 8
  %5 = alloca i64, align 8
  %6 = alloca i8, align 1
  store ptr %0, ptr %4, align 8, !tbaa !9
  store i64 %1, ptr %5, align 8, !tbaa !13
  store i8 %2, ptr %6, align 1, !tbaa !15
  %7 = load ptr, ptr %4, align 8
  %8 = call noundef i64 @_ZNKSt7__cxx1112basic_stringIcSt11char_traitsIcESaIcEE4sizeEv(ptr noundef nonnull align 8 dereferenceable(32) %7) #10
  %9 = load i64, ptr %5, align 8, !tbaa !13
  %10 = load i8, ptr %6, align 1, !tbaa !15
  %11 = call noundef nonnull align 8 dereferenceable(32) ptr @_ZNSt7__cxx1112basic_stringIcSt11char_traitsIcESaIcEE14_M_replace_auxEmmmc(ptr noundef nonnull align 8 dereferenceable(32) %7, i64 noundef %8, i64 noundef 0, i64 noundef %9, i8 noundef signext %10)
  ret ptr %11
}

; Function Attrs: mustprogress uwtable
define dso_local noundef nonnull align 8 dereferenceable(37) ptr @_ZN5vcpkg13XmlSerializer9close_tagENS_13StringLiteralE(ptr noundef nonnull align 8 dereferenceable(37) %0, ptr %1, i64 %2) #0 align 2 {
  %4 = alloca %"struct.vcpkg::StringLiteral", align 8
  %5 = alloca ptr, align 8
  %6 = alloca i8, align 1
  %7 = getelementptr inbounds nuw { ptr, i64 }, ptr %4, i32 0, i32 0
  store ptr %1, ptr %7, align 8
  %8 = getelementptr inbounds nuw { ptr, i64 }, ptr %4, i32 0, i32 1
  store i64 %2, ptr %8, align 8
  store ptr %0, ptr %5, align 8, !tbaa !4
  %9 = load ptr, ptr %5, align 8
  %10 = getelementptr inbounds nuw %"struct.vcpkg::XmlSerializer", ptr %9, i32 0, i32 1
  %11 = load i32, ptr %10, align 8, !tbaa !16
  %12 = sub nsw i32 %11, 2
  store i32 %12, ptr %10, align 8, !tbaa !16
  %13 = call noundef nonnull align 8 dereferenceable(37) ptr @_ZN5vcpkg13XmlSerializer19emit_pending_indentEv(ptr noundef nonnull align 8 dereferenceable(37) %9)
  %14 = getelementptr inbounds nuw %"struct.vcpkg::XmlSerializer", ptr %9, i32 0, i32 0
  call void @llvm.lifetime.start.p0(i64 1, ptr %6) #10
  store i8 62, ptr %6, align 1, !tbaa !15
  %15 = call noundef nonnull align 8 dereferenceable(32) ptr @_ZN5vcpkg7Strings6appendIJA3_cNS_13StringLiteralEcEEERNSt7__cxx1112basic_stringIcSt11char_traitsIcESaIcEEESA_DpRKT_(ptr noundef nonnull align 8 dereferenceable(32) %14, ptr noundef nonnull align 1 dereferenceable(3) @.str.3, ptr noundef nonnull align 8 dereferenceable(16) %4, ptr noundef nonnull align 1 dereferenceable(1) %6)
  call void @llvm.lifetime.end.p0(i64 1, ptr %6) #10
  ret ptr %9
}

; Function Attrs: mustprogress uwtable
define dso_local noundef nonnull align 8 dereferenceable(37) ptr @_ZN5vcpkg13XmlSerializer8open_tagENS_13StringLiteralE(ptr noundef nonnull align 8 dereferenceable(37) %0, ptr %1, i64 %2) #0 align 2 {
  %4 = alloca %"struct.vcpkg::StringLiteral", align 8
  %5 = alloca ptr, align 8
  %6 = alloca i8, align 1
  %7 = alloca i8, align 1
  %8 = getelementptr inbounds nuw { ptr, i64 }, ptr %4, i32 0, i32 0
  store ptr %1, ptr %8, align 8
  %9 = getelementptr inbounds nuw { ptr, i64 }, ptr %4, i32 0, i32 1
  store i64 %2, ptr %9, align 8
  store ptr %0, ptr %5, align 8, !tbaa !4
  %10 = load ptr, ptr %5, align 8
  %11 = call noundef nonnull align 8 dereferenceable(37) ptr @_ZN5vcpkg13XmlSerializer19emit_pending_indentEv(ptr noundef nonnull align 8 dereferenceable(37) %10)
  %12 = getelementptr inbounds nuw %"struct.vcpkg::XmlSerializer", ptr %10, i32 0, i32 0
  call void @llvm.lifetime.start.p0(i64 1, ptr %6) #10
  store i8 60, ptr %6, align 1, !tbaa !15
  call void @llvm.lifetime.start.p0(i64 1, ptr %7) #10
  store i8 62, ptr %7, align 1, !tbaa !15
  %13 = call noundef nonnull align 8 dereferenceable(32) ptr @_ZN5vcpkg7Strings6appendIJcNS_13StringLiteralEcEEERNSt7__cxx1112basic_stringIcSt11char_traitsIcESaIcEEES9_DpRKT_(ptr noundef nonnull align 8 dereferenceable(32) %12, ptr noundef nonnull align 1 dereferenceable(1) %6, ptr noundef nonnull align 8 dereferenceable(16) %4, ptr noundef nonnull align 1 dereferenceable(1) %7)
  call void @llvm.lifetime.end.p0(i64 1, ptr %7) #10
  call void @llvm.lifetime.end.p0(i64 1, ptr %6) #10
  %14 = getelementptr inbounds nuw %"struct.vcpkg::XmlSerializer", ptr %10, i32 0, i32 1
  %15 = load i32, ptr %14, align 8, !tbaa !16
  %16 = add nsw i32 %15, 2
  store i32 %16, ptr %14, align 8, !tbaa !16
  ret ptr %10
}

; Function Attrs: mustprogress uwtable
define dso_local noundef nonnull align 8 dereferenceable(37) ptr @_ZN5vcpkg13XmlSerializer19emit_pending_indentEv(ptr noundef nonnull align 8 dereferenceable(37) %0) #0 align 2 {
  %2 = alloca ptr, align 8
  store ptr %0, ptr %2, align 8, !tbaa !4
  %3 = load ptr, ptr %2, align 8
  %4 = getelementptr inbounds nuw %"struct.vcpkg::XmlSerializer", ptr %3, i32 0, i32 2
  %5 = load i8, ptr %4, align 4, !tbaa !22, !range !23, !noundef !24
  %6 = trunc i8 %5 to i1
  br i1 %6, label %7, label %14

7:                                                ; preds = %1
  %8 = getelementptr inbounds nuw %"struct.vcpkg::XmlSerializer", ptr %3, i32 0, i32 2
  store i8 0, ptr %8, align 4, !tbaa !22
  %9 = getelementptr inbounds nuw %"struct.vcpkg::XmlSerializer", ptr %3, i32 0, i32 0
  %10 = getelementptr inbounds nuw %"struct.vcpkg::XmlSerializer", ptr %3, i32 0, i32 1
  %11 = load i32, ptr %10, align 8, !tbaa !16
  %12 = sext i32 %11 to i64
  %13 = call noundef nonnull align 8 dereferenceable(32) ptr @_ZNSt7__cxx1112basic_stringIcSt11char_traitsIcESaIcEE6appendEmc(ptr noundef nonnull align 8 dereferenceable(32) %9, i64 noundef %12, i8 noundef signext 32)
  br label %14

14:                                               ; preds = %7, %1
  ret ptr %3
}

; Function Attrs: mustprogress uwtable
define dso_local noundef nonnull align 8 dereferenceable(37) ptr @_ZN5vcpkg13XmlSerializer10simple_tagENS_13StringLiteralENS_10StringViewE(ptr noundef nonnull align 8 dereferenceable(37) %0, ptr %1, i64 %2, ptr %3, i64 %4) #0 align 2 {
  %6 = alloca %"struct.vcpkg::StringLiteral", align 8
  %7 = alloca %"struct.vcpkg::StringView", align 8
  %8 = alloca ptr, align 8
  %9 = alloca %"struct.vcpkg::StringLiteral", align 8
  %10 = alloca %"struct.vcpkg::StringView", align 8
  %11 = alloca %"struct.vcpkg::StringLiteral", align 8
  %12 = getelementptr inbounds nuw { ptr, i64 }, ptr %6, i32 0, i32 0
  store ptr %1, ptr %12, align 8
  %13 = getelementptr inbounds nuw { ptr, i64 }, ptr %6, i32 0, i32 1
  store i64 %2, ptr %13, align 8
  %14 = getelementptr inbounds nuw { ptr, i64 }, ptr %7, i32 0, i32 0
  store ptr %3, ptr %14, align 8
  %15 = getelementptr inbounds nuw { ptr, i64 }, ptr %7, i32 0, i32 1
  store i64 %4, ptr %15, align 8
  store ptr %0, ptr %8, align 8, !tbaa !4
  %16 = load ptr, ptr %8, align 8
  %17 = call noundef nonnull align 8 dereferenceable(37) ptr @_ZN5vcpkg13XmlSerializer19emit_pending_indentEv(ptr noundef nonnull align 8 dereferenceable(37) %16)
  call void @llvm.memcpy.p0.p0.i64(ptr align 8 %9, ptr align 8 %6, i64 16, i1 false)
  %18 = getelementptr inbounds nuw { ptr, i64 }, ptr %9, i32 0, i32 0
  %19 = load ptr, ptr %18, align 8
  %20 = getelementptr inbounds nuw { ptr, i64 }, ptr %9, i32 0, i32 1
  %21 = load i64, ptr %20, align 8
  %22 = call noundef nonnull align 8 dereferenceable(37) ptr @_ZN5vcpkg13XmlSerializer8open_tagENS_13StringLiteralE(ptr noundef nonnull align 8 dereferenceable(37) %17, ptr %19, i64 %21)
  call void @llvm.memcpy.p0.p0.i64(ptr align 8 %10, ptr align 8 %7, i64 16, i1 false), !tbaa.struct !27
  %23 = getelementptr inbounds nuw { ptr, i64 }, ptr %10, i32 0, i32 0
  %24 = load ptr, ptr %23, align 8
  %25 = getelementptr inbounds nuw { ptr, i64 }, ptr %10, i32 0, i32 1
  %26 = load i64, ptr %25, align 8
  %27 = call noundef nonnull align 8 dereferenceable(37) ptr @_ZN5vcpkg13XmlSerializer4textENS_10StringViewE(ptr noundef nonnull align 8 dereferenceable(37) %22, ptr %24, i64 %26)
  call void @llvm.memcpy.p0.p0.i64(ptr align 8 %11, ptr align 8 %6, i64 16, i1 false)
  %28 = getelementptr inbounds nuw { ptr, i64 }, ptr %11, i32 0, i32 0
  %29 = load ptr, ptr %28, align 8
  %30 = getelementptr inbounds nuw { ptr, i64 }, ptr %11, i32 0, i32 1
  %31 = load i64, ptr %30, align 8
  %32 = call noundef nonnull align 8 dereferenceable(37) ptr @_ZN5vcpkg13XmlSerializer9close_tagENS_13StringLiteralE(ptr noundef nonnull align 8 dereferenceable(37) %27, ptr %29, i64 %31)
  ret ptr %32
}