; Function Attrs: mustprogress uwtable
define dso_local noundef nonnull align 8 dereferenceable(37) ptr @_ZN5vcpkg13XmlSerializer10simple_tagENS_13StringLiteralENS_10StringViewE(ptr noundef nonnull returned align 8 dereferenceable(37) %0, ptr %1, i64 %2, ptr captures(address) %3, i64 %4) local_unnamed_addr #0 align 2 {
  %6 = alloca %"struct.vcpkg::StringLiteral", align 8
  %7 = alloca %"struct.vcpkg::StringLiteral", align 8
  %8 = getelementptr inbounds nuw i8, ptr %0, i64 36
  %9 = load i8, ptr %8, align 4, !tbaa !12, !range !16, !noundef !17
  %10 = trunc nuw i8 %9 to i1
  br i1 %10, label %_ZN5vcpkg13XmlSerializer19emit_pending_indentEv.exit, label %_ZN5vcpkg13XmlSerializer19emit_pending_indentEv.exit.thread

_ZN5vcpkg13XmlSerializer19emit_pending_indentEv.exit.thread: ; preds = %5
  call void @llvm.lifetime.start.p0(i64 16, ptr nonnull %7)
  store ptr %1, ptr %7, align 8
  %11 = getelementptr inbounds nuw i8, ptr %7, i64 8
  store i64 %2, ptr %11, align 8
  br label %_ZN5vcpkg13XmlSerializer8open_tagENS_13StringLiteralE.exit

_ZN5vcpkg13XmlSerializer19emit_pending_indentEv.exit: ; preds = %5
  store i8 0, ptr %8, align 4, !tbaa !12
  %12 = getelementptr inbounds nuw i8, ptr %0, i64 32
  %13 = load i32, ptr %12, align 8, !tbaa !18
  %14 = sext i32 %13 to i64
  %15 = getelementptr inbounds nuw i8, ptr %0, i64 8
  %16 = load i64, ptr %15, align 8, !tbaa !4
  %17 = tail call noundef nonnull align 8 dereferenceable(32) ptr @_ZNSt7__cxx1112basic_stringIcSt11char_traitsIcESaIcEE14_M_replace_auxEmmmc(ptr noundef nonnull align 8 dereferenceable(37) %0, i64 noundef %16, i64 noundef 0, i64 noundef %14, i8 noundef signext 32)
  %.pre = load i8, ptr %8, align 4, !tbaa !12, !range !16
  call void @llvm.lifetime.start.p0(i64 16, ptr nonnull %7)
  store ptr %1, ptr %7, align 8
  %18 = getelementptr inbounds nuw i8, ptr %7, i64 8
  store i64 %2, ptr %18, align 8
  %19 = trunc nuw i8 %.pre to i1
  br i1 %19, label %20, label %_ZN5vcpkg13XmlSerializer8open_tagENS_13StringLiteralE.exit

20:                                               ; preds = %_ZN5vcpkg13XmlSerializer19emit_pending_indentEv.exit
  store i8 0, ptr %8, align 4, !tbaa !12
  %21 = getelementptr inbounds nuw i8, ptr %0, i64 32
  %22 = load i32, ptr %21, align 8, !tbaa !18
  %23 = sext i32 %22 to i64
  %24 = getelementptr inbounds nuw i8, ptr %0, i64 8
  %25 = load i64, ptr %24, align 8, !tbaa !4
  %26 = tail call noundef nonnull align 8 dereferenceable(32) ptr @_ZNSt7__cxx1112basic_stringIcSt11char_traitsIcESaIcEE14_M_replace_auxEmmmc(ptr noundef nonnull align 8 dereferenceable(37) %0, i64 noundef %25, i64 noundef 0, i64 noundef %23, i8 noundef signext 32)
  br label %_ZN5vcpkg13XmlSerializer8open_tagENS_13StringLiteralE.exit

_ZN5vcpkg13XmlSerializer8open_tagENS_13StringLiteralE.exit: ; preds = %_ZN5vcpkg13XmlSerializer19emit_pending_indentEv.exit.thread, %_ZN5vcpkg13XmlSerializer19emit_pending_indentEv.exit, %20
  tail call void @_ZN5vcpkg7Strings7details15append_internalERNSt7__cxx1112basic_stringIcSt11char_traitsIcESaIcEEEc(ptr noundef nonnull align 8 dereferenceable(37) %0, i8 noundef signext 60)
  call void @_ZNK5vcpkg10StringView9to_stringERNSt7__cxx1112basic_stringIcSt11char_traitsIcESaIcEEE(ptr noundef nonnull align 8 dereferenceable(16) %7, ptr noundef nonnull align 8 dereferenceable(37) %0)
  call void @_ZN5vcpkg7Strings7details15append_internalERNSt7__cxx1112basic_stringIcSt11char_traitsIcESaIcEEEc(ptr noundef nonnull align 8 dereferenceable(37) %0, i8 noundef signext 62)
  %27 = getelementptr inbounds nuw i8, ptr %0, i64 32
  %28 = load i32, ptr %27, align 8, !tbaa !18
  %29 = add nsw i32 %28, 2
  store i32 %29, ptr %27, align 8, !tbaa !18
  call void @llvm.lifetime.end.p0(i64 16, ptr nonnull %7)
  %30 = call noundef nonnull align 8 dereferenceable(37) ptr @_ZN5vcpkg13XmlSerializer4textENS_10StringViewE(ptr noundef nonnull align 8 dereferenceable(37) %0, ptr %3, i64 %4)
  call void @llvm.lifetime.start.p0(i64 16, ptr nonnull %6)
  store ptr %1, ptr %6, align 8
  %31 = getelementptr inbounds nuw i8, ptr %6, i64 8
  store i64 %2, ptr %31, align 8
  %32 = load i32, ptr %27, align 8, !tbaa !18
  %33 = add nsw i32 %32, -2
  store i32 %33, ptr %27, align 8, !tbaa !18
  %34 = load i8, ptr %8, align 4, !tbaa !12, !range !16, !noundef !17
  %35 = trunc nuw i8 %34 to i1
  br i1 %35, label %36, label %_ZN5vcpkg13XmlSerializer9close_tagENS_13StringLiteralE.exit

36:                                               ; preds = %_ZN5vcpkg13XmlSerializer8open_tagENS_13StringLiteralE.exit
  store i8 0, ptr %8, align 4, !tbaa !12
  %37 = sext i32 %33 to i64
  %38 = getelementptr inbounds nuw i8, ptr %0, i64 8
  %39 = load i64, ptr %38, align 8, !tbaa !4
  %40 = call noundef nonnull align 8 dereferenceable(32) ptr @_ZNSt7__cxx1112basic_stringIcSt11char_traitsIcESaIcEE14_M_replace_auxEmmmc(ptr noundef nonnull align 8 dereferenceable(37) %0, i64 noundef %39, i64 noundef 0, i64 noundef %37, i8 noundef signext 32)
  br label %_ZN5vcpkg13XmlSerializer9close_tagENS_13StringLiteralE.exit

_ZN5vcpkg13XmlSerializer9close_tagENS_13StringLiteralE.exit: ; preds = %_ZN5vcpkg13XmlSerializer8open_tagENS_13StringLiteralE.exit, %36
  call void @_ZN5vcpkg7Strings7details15append_internalERNSt7__cxx1112basic_stringIcSt11char_traitsIcESaIcEEEPKc(ptr noundef nonnull align 8 dereferenceable(37) %0, ptr noundef nonnull @.str.3)
  call void @_ZNK5vcpkg10StringView9to_stringERNSt7__cxx1112basic_stringIcSt11char_traitsIcESaIcEEE(ptr noundef nonnull align 8 dereferenceable(16) %6, ptr noundef nonnull align 8 dereferenceable(37) %0)
  call void @_ZN5vcpkg7Strings7details15append_internalERNSt7__cxx1112basic_stringIcSt11char_traitsIcESaIcEEEc(ptr noundef nonnull align 8 dereferenceable(37) %0, i8 noundef signext 62)
  call void @llvm.lifetime.end.p0(i64 16, ptr nonnull %6)
  ret ptr %0
}